target datalayout = "e-m:e-p270:32:32-p271:32:32-p272:64:64-i64:64-i128:128-f80:128-n8:16:32:64-S128"
target triple = "x86_64-pc-linux-gnu"

%"class.llvm::SmallVectorBase" = type { ptr, i32, i32 }
%"class.llvm::SmallPtrSetImplBase.base" = type <{ ptr, ptr, i32, i32, i32 }>
%"class.llvm::SmallVector.11" = type { %"class.llvm::SmallVectorImpl.12", %"struct.llvm::SmallVectorStorage.15" }
%"class.llvm::SmallVectorImpl.12" = type { %"class.llvm::SmallVectorTemplateBase.13" }
%"class.llvm::SmallVectorTemplateBase.13" = type { %"class.llvm::SmallVectorTemplateCommon.14" }
%"class.llvm::SmallVectorTemplateCommon.14" = type { %"class.llvm::SmallVectorBase" }
%"struct.llvm::SmallVectorStorage.15" = type { [8 x i8] }
%"class.llvm::SmallVector.16" = type { %"class.llvm::SmallVectorImpl.17", %"struct.llvm::SmallVectorStorage.20" }
%"class.llvm::SmallVectorImpl.17" = type { %"class.llvm::SmallVectorTemplateBase.18" }
%"class.llvm::SmallVectorTemplateBase.18" = type { %"class.llvm::SmallVectorTemplateCommon.19" }
%"class.llvm::SmallVectorTemplateCommon.19" = type { %"class.llvm::SmallVectorBase" }
%"struct.llvm::SmallVectorStorage.20" = type { [48 x i8] }
%"class.llvm::MachineDominatorTree" = type { %"class.llvm::DominatorTreeBase.base", %"class.llvm::SmallVector.177", %"class.llvm::SmallSet" }
%"class.llvm::DominatorTreeBase.base" = type <{ %"class.llvm::SmallVector.11", %"class.llvm::SmallVector.16", [8 x i8], ptr, ptr, i8, [3 x i8], i32, i32 }>
%"class.llvm::SmallVector.177" = type { %"class.llvm::SmallVectorImpl.178", %"struct.llvm::SmallVectorStorage.181" }
%"class.llvm::SmallVectorImpl.178" = type { %"class.llvm::SmallVectorTemplateBase.179" }
%"class.llvm::SmallVectorTemplateBase.179" = type { %"class.llvm::SmallVectorTemplateCommon.180" }
%"class.llvm::SmallVectorTemplateCommon.180" = type { %"class.llvm::SmallVectorBase" }
%"struct.llvm::SmallVectorStorage.181" = type { [768 x i8] }
%"class.llvm::SmallSet" = type { %"class.llvm::SmallPtrSet.182" }
%"class.llvm::SmallPtrSet.182" = type { %"class.llvm::SmallPtrSetImpl.base.184", [32 x ptr] }
%"class.llvm::SmallPtrSetImpl.base.184" = type { %"class.llvm::SmallPtrSetImplBase.base" }
%"class.llvm::MachineDominatorTreeWrapperPass" = type { %"class.llvm::MachineFunctionPass", %"class.std::optional.207" }
%"class.llvm::MachineFunctionPass" = type { %"class.llvm::FunctionPass.base", %"class.llvm::MachineFunctionProperties", %"class.llvm::MachineFunctionProperties", %"class.llvm::MachineFunctionProperties" }
%"class.llvm::FunctionPass.base" = type { %"class.llvm::Pass.base" }
%"class.llvm::Pass.base" = type <{ ptr, ptr, ptr, i32 }>
%"class.llvm::MachineFunctionProperties" = type { %"class.std::bitset" }
%"class.std::bitset" = type { %"struct.std::_Base_bitset" }
%"struct.std::_Base_bitset" = type { i64 }
%"class.std::optional.207" = type { %"struct.std::_Optional_base.208" }
%"struct.std::_Optional_base.208" = type { %"struct.std::_Optional_payload.210" }
%"struct.std::_Optional_payload.210" = type { %"struct.std::_Optional_payload.base.214", [7 x i8] }
%"struct.std::_Optional_payload.base.214" = type { %"struct.std::_Optional_payload_base.base.213" }
%"struct.std::_Optional_payload_base.base.213" = type <{ %"union.std::_Optional_payload_base<llvm::MachineDominatorTree>::_Storage", i8 }>
%"union.std::_Optional_payload_base<llvm::MachineDominatorTree>::_Storage" = type { %"class.llvm::MachineDominatorTree" }
%"class.llvm::SmallPtrSetImplBase" = type <{ ptr, ptr, i32, i32, i32, [4 x i8] }>
%"struct.llvm::MachineDominatorTree::CriticalEdge" = type { ptr, ptr, ptr }

; Function Attrs: mustprogress nounwind uwtable
define linkonce_odr hidden noundef zeroext i1 @_ZNK4llvm19SmallPtrSetImplBase7isSmallEv(ptr noundef nonnull align 8 dereferenceable(28) %0) #1 comdat align 2 {
  %2 = alloca ptr, align 8
  store ptr %0, ptr %2, align 8
  %3 = load ptr, ptr %2, align 8
  %4 = getelementptr inbounds nuw %"class.llvm::SmallPtrSetImplBase", ptr %3, i32 0, i32 1
  %5 = load ptr, ptr %4, align 8
  %6 = getelementptr inbounds nuw %"class.llvm::SmallPtrSetImplBase", ptr %3, i32 0, i32 0
  %7 = load ptr, ptr %6, align 8
  %8 = icmp eq ptr %5, %7
  ret i1 %8
}

; Function Attrs: mustprogress nounwind uwtable
define linkonce_odr hidden noundef ptr @_ZNK4llvm25SmallVectorTemplateCommonINS_20MachineDominatorTree12CriticalEdgeEvE10getFirstElEv(ptr noundef nonnull align 8 dereferenceable(16) %0) #1 comdat align 2 {
  %2 = alloca ptr, align 8
  store ptr %0, ptr %2, align 8
  %3 = load ptr, ptr %2, align 8
  %4 = getelementptr inbounds i8, ptr %3, i64 16
  ret ptr %4
}

; Function Attrs: mustprogress nounwind uwtable
define linkonce_odr hidden void @_ZN4llvm19SmallPtrSetImplBaseD2Ev(ptr noundef nonnull align 8 dereferenceable(28) %0) unnamed_addr #1 comdat align 2 {
  %2 = alloca ptr, align 8
  store ptr %0, ptr %2, align 8
  %3 = load ptr, ptr %2, align 8
  %4 = call noundef zeroext i1 @_ZNK4llvm19SmallPtrSetImplBase7isSmallEv(ptr noundef nonnull align 8 dereferenceable(28) %3)
  br i1 %4, label %8, label %5

5:                                                ; preds = %1
  %6 = getelementptr inbounds nuw %"class.llvm::SmallPtrSetImplBase", ptr %3, i32 0, i32 1
  %7 = load ptr, ptr %6, align 8
  call void @free(ptr noundef %7) #2
  br label %8

8:                                                ; preds = %5, %1
  ret void
}

; Function Attrs: mustprogress nounwind uwtable
define linkonce_odr hidden noundef zeroext i1 @_ZNK4llvm25SmallVectorTemplateCommonINS_20MachineDominatorTree12CriticalEdgeEvE7isSmallEv(ptr noundef nonnull align 8 dereferenceable(16) %0) #1 comdat align 2 {
  %2 = alloca ptr, align 8
  store ptr %0, ptr %2, align 8
  %3 = load ptr, ptr %2, align 8
  %4 = getelementptr inbounds nuw %"class.llvm::SmallVectorBase", ptr %3, i32 0, i32 0
  %5 = load ptr, ptr %4, align 8
  %6 = call noundef ptr @_ZNK4llvm25SmallVectorTemplateCommonINS_20MachineDominatorTree12CriticalEdgeEvE10getFirstElEv(ptr noundef nonnull align 8 dereferenceable(16) %3)
  %7 = icmp eq ptr %5, %6
  ret i1 %7
}

; Function Attrs: mustprogress nounwind uwtable
define linkonce_odr hidden void @_ZN4llvm15SmallPtrSetImplIPNS_17MachineBasicBlockEED2Ev(ptr noundef nonnull align 8 dereferenceable(28) %0) unnamed_addr #1 comdat align 2 {
  %2 = alloca ptr, align 8
  store ptr %0, ptr %2, align 8
  %3 = load ptr, ptr %2, align 8
  call void @_ZN4llvm19SmallPtrSetImplBaseD2Ev(ptr noundef nonnull align 8 dereferenceable(28) %3) #2
  ret void
}

; Function Attrs: mustprogress nounwind uwtable
define linkonce_odr hidden void @_ZN4llvm15SmallVectorImplINS_20MachineDominatorTree12CriticalEdgeEED2Ev(ptr noundef nonnull align 8 dereferenceable(16) %0) unnamed_addr #1 comdat align 2 {
  %2 = alloca ptr, align 8
  store ptr %0, ptr %2, align 8
  %3 = load ptr, ptr %2, align 8
  %4 = call noundef zeroext i1 @_ZNK4llvm25SmallVectorTemplateCommonINS_20MachineDominatorTree12CriticalEdgeEvE7isSmallEv(ptr noundef nonnull align 8 dereferenceable(16) %3)
  br i1 %4, label %7, label %5

5:                                                ; preds = %1
  %6 = call noundef ptr @_ZN4llvm25SmallVectorTemplateCommonINS_20MachineDominatorTree12CriticalEdgeEvE5beginEv(ptr noundef nonnull align 8 dereferenceable(16) %3)
  call void @free(ptr noundef %6) #2
  br label %7

7:                                                ; preds = %5, %1
  ret void
}

; Function Attrs: mustprogress nounwind uwtable
define linkonce_odr hidden void @_ZN4llvm23SmallVectorTemplateBaseINS_20MachineDominatorTree12CriticalEdgeELb1EE13destroy_rangeEPS2_S4_(ptr noundef %0, ptr noundef %1) #1 comdat align 2 {
  %3 = alloca ptr, align 8
  %4 = alloca ptr, align 8
  store ptr %0, ptr %3, align 8
  store ptr %1, ptr %4, align 8
  ret void
}

; Function Attrs: mustprogress nounwind uwtable
define linkonce_odr hidden noundef ptr @_ZN4llvm25SmallVectorTemplateCommonINS_20MachineDominatorTree12CriticalEdgeEvE3endEv(ptr noundef nonnull align 8 dereferenceable(16) %0) #1 comdat align 2 {
  %2 = alloca ptr, align 8
  store ptr %0, ptr %2, align 8
  %3 = load ptr, ptr %2, align 8
  %4 = call noundef ptr @_ZN4llvm25SmallVectorTemplateCommonINS_20MachineDominatorTree12CriticalEdgeEvE5beginEv(ptr noundef nonnull align 8 dereferenceable(16) %3)
  %5 = call noundef i64 @_ZNK4llvm15SmallVectorBaseIjE4sizeEv(ptr noundef nonnull align 8 dereferenceable(16) %3)
  %6 = getelementptr inbounds %"struct.llvm::MachineDominatorTree::CriticalEdge", ptr %4, i64 %5
  ret ptr %6
}

; Function Attrs: mustprogress nounwind uwtable
define linkonce_odr hidden noundef ptr @_ZN4llvm25SmallVectorTemplateCommonINS_20MachineDominatorTree12CriticalEdgeEvE5beginEv(ptr noundef nonnull align 8 dereferenceable(16) %0) #1 comdat align 2 {
  %2 = alloca ptr, align 8
  store ptr %0, ptr %2, align 8
  %3 = load ptr, ptr %2, align 8
  %4 = getelementptr inbounds nuw %"class.llvm::SmallVectorBase", ptr %3, i32 0, i32 0
  %5 = load ptr, ptr %4, align 8
  ret ptr %5
}

; Function Attrs: mustprogress nounwind uwtable
define linkonce_odr hidden void @_ZN4llvm11SmallPtrSetIPNS_17MachineBasicBlockELj32EED2Ev(ptr noundef nonnull align 8 dereferenceable(288) %0) unnamed_addr #1 comdat align 2 {
  %2 = alloca ptr, align 8
  store ptr %0, ptr %2, align 8
  %3 = load ptr, ptr %2, align 8
  call void @_ZN4llvm15SmallPtrSetImplIPNS_17MachineBasicBlockEED2Ev(ptr noundef nonnull align 8 dereferenceable(28) %3) #2
  ret void
}

; Function Attrs: mustprogress nounwind uwtable
define linkonce_odr hidden void @_ZN4llvm11SmallVectorINS_20MachineDominatorTree12CriticalEdgeELj32EED2Ev(ptr noundef nonnull align 8 dereferenceable(784) %0) unnamed_addr #1 comdat align 2 {
  %2 = alloca ptr, align 8
  store ptr %0, ptr %2, align 8
  %3 = load ptr, ptr %2, align 8
  %4 = call noundef ptr @_ZN4llvm25SmallVectorTemplateCommonINS_20MachineDominatorTree12CriticalEdgeEvE5beginEv(ptr noundef nonnull align 8 dereferenceable(16) %3)
  %5 = call noundef ptr @_ZN4llvm25SmallVectorTemplateCommonINS_20MachineDominatorTree12CriticalEdgeEvE3endEv(ptr noundef nonnull align 8 dereferenceable(16) %3)
  call void @_ZN4llvm23SmallVectorTemplateBaseINS_20MachineDominatorTree12CriticalEdgeELb1EE13destroy_rangeEPS2_S4_(ptr noundef %4, ptr noundef %5)
  call void @_ZN4llvm15SmallVectorImplINS_20MachineDominatorTree12CriticalEdgeEED2Ev(ptr noundef nonnull align 8 dereferenceable(16) %3) #2
  ret void
}

; Function Attrs: mustprogress nounwind uwtable
define linkonce_odr hidden void @_ZN4llvm8SmallSetIPNS_17MachineBasicBlockELj32ESt4lessIS2_EED2Ev(ptr noundef nonnull align 8 dereferenceable(288) %0) unnamed_addr #1 comdat align 2 {
  %2 = alloca ptr, align 8
  store ptr %0, ptr %2, align 8
  %3 = load ptr, ptr %2, align 8
  call void @_ZN4llvm11SmallPtrSetIPNS_17MachineBasicBlockELj32EED2Ev(ptr noundef nonnull align 8 dereferenceable(288) %3) #2
  ret void
}

; Function Attrs: mustprogress nounwind uwtable
define linkonce_odr hidden void @_ZN4llvm20MachineDominatorTreeD2Ev(ptr noundef nonnull align 8 dereferenceable(1200) %0) unnamed_addr #1 comdat align 2 {
  %2 = alloca ptr, align 8
  store ptr %0, ptr %2, align 8
  %3 = load ptr, ptr %2, align 8
  %4 = getelementptr inbounds nuw %"class.llvm::MachineDominatorTree", ptr %3, i32 0, i32 2
  call void @_ZN4llvm8SmallSetIPNS_17MachineBasicBlockELj32ESt4lessIS2_EED2Ev(ptr noundef nonnull align 8 dereferenceable(288) %4) #2
  %5 = getelementptr inbounds nuw %"class.llvm::MachineDominatorTree", ptr %3, i32 0, i32 1
  call void @_ZN4llvm11SmallVectorINS_20MachineDominatorTree12CriticalEdgeELj32EED2Ev(ptr noundef nonnull align 8 dereferenceable(784) %5) #2
  call void @_ZN4llvm17DominatorTreeBaseINS_17MachineBasicBlockELb0EED2Ev(ptr noundef nonnull align 8 dereferenceable(124) %3) #2
  ret void
}

; Function Attrs: mustprogress nounwind uwtable
define dso_local noundef zeroext i1 @_ZN4llvm31MachineDominatorTreeWrapperPass20runOnMachineFunctionERNS_15MachineFunctionE(ptr noundef nonnull align 8 dereferenceable(1264) %0, ptr noundef nonnull align 8 dereferenceable(1041) %1) unnamed_addr #1 align 2 {
  %3 = alloca ptr, align 8
  %4 = alloca ptr, align 8
  %5 = alloca %"class.llvm::MachineDominatorTree", align 8
  store ptr %0, ptr %3, align 8
  store ptr %1, ptr %4, align 8
  %6 = load ptr, ptr %3, align 8
  %7 = load ptr, ptr %4, align 8
  call void @_ZN4llvm20MachineDominatorTreeC2ERNS_15MachineFunctionE(ptr noundef nonnull align 8 dereferenceable(1200) %5, ptr noundef nonnull align 8 dereferenceable(1041) %7)
  %8 = getelementptr inbounds nuw %"class.llvm::MachineDominatorTreeWrapperPass", ptr %6, i32 0, i32 1
  %9 = call noundef nonnull align 8 dereferenceable(1208) ptr @_ZNSt8optionalIN4llvm20MachineDominatorTreeEEaSIS1_EENSt9enable_ifIX7__and_vISt6__not_ISt7is_sameIS2_NSt9remove_cvINSt16remove_referenceIT_E4typeEE4typeEEES5_ISt6__and_IJSt9is_scalarIS1_ES6_IS1_NSt5decayIS9_E4typeEEEEESt16is_constructibleIS1_JS9_EESt13is_assignableIRS1_S9_EEERS2_E4typeEOS9_(ptr noundef nonnull align 8 dereferenceable(1208) %8, ptr noundef nonnull align 8 dereferenceable(1200) %5)
  call void @_ZN4llvm20MachineDominatorTreeD2Ev(ptr noundef nonnull align 8 dereferenceable(1200) %5) #2
  ret i1 false
}