; Function Attrs: mustprogress nounwind uwtable
define dso_local noundef zeroext i1 @_ZN4llvm31MachineDominatorTreeWrapperPass20runOnMachineFunctionERNS_15MachineFunctionE(ptr noundef nonnull align 8 dereferenceable(1264) %0, ptr noundef nonnull align 8 dereferenceable(1041) %1) unnamed_addr #0 align 2 {
  %3 = alloca %"class.llvm::MachineDominatorTree", align 8
  call void @_ZN4llvm20MachineDominatorTreeC2ERNS_15MachineFunctionE(ptr noundef nonnull align 8 dereferenceable(1200) %3, ptr noundef nonnull align 8 dereferenceable(1041) %1)
  %4 = getelementptr inbounds nuw i8, ptr %0, i64 56
  %5 = call noundef nonnull align 8 dereferenceable(1208) ptr @_ZNSt8optionalIN4llvm20MachineDominatorTreeEEaSIS1_EENSt9enable_ifIX7__and_vISt6__not_ISt7is_sameIS2_NSt9remove_cvINSt16remove_referenceIT_E4typeEE4typeEEES5_ISt6__and_IJSt9is_scalarIS1_ES6_IS1_NSt5decayIS9_E4typeEEEEESt16is_constructibleIS1_JS9_EESt13is_assignableIRS1_S9_EEERS2_E4typeEOS9_(ptr noundef nonnull align 8 dereferenceable(1208) %4, ptr noundef nonnull align 8 dereferenceable(1200) %3)
  %6 = getelementptr inbounds nuw i8, ptr %3, i64 912
  %7 = getelementptr inbounds i8, ptr %3, i64 920
  %8 = load ptr, ptr %7, align 8
  %9 = load ptr, ptr %6, align 8
  %10 = icmp eq ptr %8, %9
  br i1 %10, label %_ZN4llvm8SmallSetIPNS_17MachineBasicBlockELj32ESt4lessIS2_EED2Ev.exit.i, label %11

11:                                               ; preds = %2
  call void @free(ptr noundef %8) #17
  br label %_ZN4llvm8SmallSetIPNS_17MachineBasicBlockELj32ESt4lessIS2_EED2Ev.exit.i

_ZN4llvm8SmallSetIPNS_17MachineBasicBlockELj32ESt4lessIS2_EED2Ev.exit.i: ; preds = %11, %2
  %12 = getelementptr inbounds nuw i8, ptr %3, i64 128
  %13 = call noundef i64 @_ZNK4llvm15SmallVectorBaseIjE4sizeEv(ptr noundef nonnull align 8 dereferenceable(16) %12) #17
  %14 = load ptr, ptr %12, align 8
  %15 = getelementptr inbounds i8, ptr %3, i64 144
  %16 = icmp eq ptr %14, %15
  br i1 %16, label %_ZN4llvm20MachineDominatorTreeD2Ev.exit, label %17

17:                                               ; preds = %_ZN4llvm8SmallSetIPNS_17MachineBasicBlockELj32ESt4lessIS2_EED2Ev.exit.i
  call void @free(ptr noundef %14) #17
  br label %_ZN4llvm20MachineDominatorTreeD2Ev.exit

_ZN4llvm20MachineDominatorTreeD2Ev.exit:          ; preds = %_ZN4llvm8SmallSetIPNS_17MachineBasicBlockELj32ESt4lessIS2_EED2Ev.exit.i, %17
  call void @_ZN4llvm17DominatorTreeBaseINS_17MachineBasicBlockELb0EED2Ev(ptr noundef nonnull align 8 dereferenceable(124) %3) #17
  ret i1 false
}